(lp1
(lp2
S'1136'
p3
aS'100'
p4
aS'3'
aS'1'
aS'47'
p5
aS'1136_40130.10907392_11_13_3_1_47.wav'
p6
aa(lp7
g3
ag4
aS'4'
aS'40'
p8
aS'3'
aS'1136_40130.16803997_11_13_4_40_3.wav'
p9
aa(lp10
g3
ag4
aS'5'
aS'12'
p11
aS'57'
p12
aS'1136_40130.18777681_11_13_5_12_57.wav'
p13
aa(lp14
g3
ag4
aS'5'
aS'57'
p15
aS'8'
aS'1136_40130.21428466_11_13_5_57_8.wav'
p16
aa(lp17
g3
aS'153'
p18
aS'14'
p19
aS'12'
p20
aS'38'
p21
aS'1136_40183.51158986_1_5_14_12_38.wav'
p22
aa(lp23
g3
ag18
aS'14'
p24
aS'40'
p25
aS'24'
p26
aS'1136_40183.52824983_1_5_14_40_24.wav'
p27
aa(lp28
g3
ag18
aS'15'
p29
aS'5'
aS'13'
p30
aS'1136_40183.54313135_1_5_15_5_13.wav'
p31
aa(lp32
g3
ag18
aS'15'
p33
aS'38'
p34
aS'13'
p35
aS'1136_40183.56293019_1_5_15_38_13.wav'
p36
aa(lp37
g3
ag18
aS'16'
p38
aS'9'
aS'3'
aS'1136_40183.58143887_1_5_16_9_3.wav'
p39
aa(lp40
g3
ag18
aS'17'
p41
aS'11'
p42
aS'21'
p43
aS'1136_40183.61881124_1_5_17_11_21.wav'
p44
aa(lp45
g3
ag18
aS'17'
p46
aS'33'
p47
aS'50'
p48
aS'1136_40183.63230767_1_5_17_33_50.wav'
p49
aa(lp50
S'1592'
p51
aS'54'
p52
aS'7'
aS'54'
p53
aS'51'
p54
aS'r1592_41540.28491828_9_23_7_54_51.wav'
p55
aa(lp56
g51
ag52
aS'9'
aS'6'
aS'39'
p57
aS'r1592_41540.32799468_9_23_9_6_39.wav'
p58
aa(lp59
g51
ag52
aS'10'
p60
aS'51'
p61
aS'35'
p62
aS'r1592_41540.39095109_9_23_10_51_35.wav'
p63
aa(lp64
g51
ag52
aS'12'
p65
aS'48'
p66
aS'32'
p67
aS'r1592_41540.46112062_9_23_12_48_32.wav'
p68
aa(lp69
g51
ag52
aS'14'
p70
aS'50'
p71
aS'23'
p72
aS'r1592_41540.53423687_9_23_14_50_23.wav'
p73
aa(lp74
g51
ag52
aS'18'
p75
aS'20'
p76
aS'47'
p77
aS'r1592_41540.66047281_9_23_18_20_47.wav'
p78
aa(lp79
g51
aS'91'
p80
aS'7'
aS'4'
aS'44'
p81
aS'r1592_41577.25484484_10_30_7_4_44.wav'
p82
aa(lp83
g51
ag80
aS'7'
aS'24'
p84
aS'35'
p85
aS'r1592_41577.26675015_10_30_7_24_35.wav'
p86
aa(lp87
g51
ag80
aS'9'
aS'40'
p88
aS'6'
aS'r1592_41577.34806109_10_30_9_40_6.wav'
p89
aa(lp90
g51
ag80
aS'11'
p91
aS'48'
p92
aS'5'
aS'r1592_41577.42485468_10_30_11_48_5.wav'
p93
aa(lp94
g51
ag80
aS'14'
p95
aS'51'
p96
aS'30'
p97
aS'r1592_41577.5349064_10_30_14_51_30.wav'
p98
aa(lp99
g51
ag80
aS'18'
p100
aS'6'
aS'57'
p101
aS'r1592_41577.65217093_10_30_18_6_57.wav'
p102
aa(lp103
g51
ag80
aS'20'
p104
aS'19'
p105
aS'2'
aS'r1592_41577.73142109_10_30_20_19_2.wav'
p106
aa.